(dp0
S'group_profiles'
p1
(dp2
sS'profiles'
p3
(dp4
I5
(dp5
S'AC'
p6
S'Disallowed'
p7
sS'name'
p8
csip
_unpickle_type
p9
(S'PyQt4.QtCore'
p10
S'QString'
p11
(VEmployee
p12
tp13
tp14
Rp15
sS'settings'
p16
(dp17
I1
(dp18
S'banned'
p19
g9
(g10
S'QString'
p20
(V1230-1630
p21
tp22
tp23
Rp24
sS'time'
p25
S'60'
p26
ssI2
(dp27
g19
g9
(g10
S'QString'
p28
(V1330-1730
p29
tp30
tp31
Rp32
sg25
S'50'
p33
ssI3
(dp34
g19
g9
(g10
S'QString'
p35
(V1430-2355
p36
tp37
tp38
Rp39
sg25
S'40'
p40
ssI4
(dp41
g19
g9
(g10
S'QString'
p42
(V1530-2355
p43
tp44
tp45
Rp46
sg25
S'30'
p47
ssI5
(dp48
g19
g9
(g10
S'QString'
p49
(V1630-2030
p50
tp51
tp52
Rp53
sg25
S'20'
p54
ssI6
(dp55
g19
g9
(g10
S'QString'
p56
(V1730-2130
p57
tp58
tp59
Rp60
sg25
S'10'
p61
ssI7
(dp62
g19
g9
(g10
S'QString'
p63
(V1830-2230
p64
tp65
tp66
Rp67
sg25
S'10'
p68
sssS'BL'
p69
S'sex.com redtube.com'
p70
sS'HP'
p71
S'Yes'
p72
sS'WL'
p73
S''
p74
sS'SS'
p75
S'Disallowed'
p76
sS'SN'
p77
S'Disallowed'
p78
sS'id'
p79
S'5'
p80
ssI6
(dp81
S'AC'
p82
g9
(g10
S'QString'
p83
(VAllowed
p84
tp85
tp86
Rp87
sS'name'
p88
g9
(g10
S'QString'
p89
(VChildrens
p90
tp91
tp92
Rp93
sS'settings'
p94
(dp95
I1
(dp96
S'banned'
p97
g9
(g10
S'QString'
p98
(V1230-1630
p99
tp100
tp101
Rp102
sS'time'
p103
S'80'
p104
ssI2
(dp105
g97
g9
(g10
S'QString'
p106
(V1330-1730
p107
tp108
tp109
Rp110
sg103
S'70'
p111
ssI3
(dp112
g97
g9
(g10
S'QString'
p113
(V1430-1830
p114
tp115
tp116
Rp117
sg103
S'60'
p118
ssI4
(dp119
g97
g9
(g10
S'QString'
p120
(V1530-1930
p121
tp122
tp123
Rp124
sg103
S'50'
p125
ssI5
(dp126
g97
g9
(g10
S'QString'
p127
(V1630-2030
p128
tp129
tp130
Rp131
sg103
S'40'
p132
ssI6
(dp133
g97
g9
(g10
S'QString'
p134
(V1730-2130
p135
tp136
tp137
Rp138
sg103
S'30'
p139
ssI7
(dp140
g97
g9
(g10
S'QString'
p141
(V1830-2230
p142
tp143
tp144
Rp145
sg103
S'20'
p146
sssS'BL'
p147
g9
(g10
S'QString'
p148
(V
p149
tp150
tp151
Rp152
sS'HP'
p153
g9
(g10
S'QString'
p154
(VYes
p155
tp156
tp157
Rp158
sS'WL'
p159
g9
(g10
S'QString'
p160
(g149
tp161
tp162
Rp163
sS'SS'
p164
g9
(g10
S'QString'
p165
(VAllowed
p166
tp167
tp168
Rp169
sS'SN'
p170
g9
(g10
S'QString'
p171
(VAllowed
p172
tp173
tp174
Rp175
sS'id'
p176
S'6'
p177
sssS'user_profiles'
p178
(dp179
s.